target datalayout = "e-m:e-p270:32:32-p271:32:32-p272:64:64-i64:64-i128:128-f80:128-n8:16:32:64-S128"
target triple = "x86_64-pc-linux-gnu"

%struct._zend_executor_globals = type { %struct._zval_struct, %struct._zval_struct, [32 x ptr], ptr, ptr, %struct._zend_array, %struct._zend_array, ptr, i32, i32, ptr, ptr, ptr, ptr, ptr, ptr, i64, ptr, ptr, i32, i32, i64, i32, i32, i32, i8, i8, %struct.zend_atomic_bool_s, %struct.zend_atomic_bool_s, ptr, i64, ptr, ptr, %struct._zend_array, %struct._zend_array, i32, i8, %struct._zval_struct, %struct._zval_struct, %struct._zend_stack, %struct._zend_stack, %struct._zend_stack, ptr, i32, i32, i64, ptr, ptr, ptr, %struct._zend_objects_store, ptr, ptr, ptr, [3 x %struct._zend_op], ptr, i8, i8, i64, i32, i32, ptr, [16 x %struct._HashTableIterator], ptr, %union._zend_function, %struct._zend_op, %struct._zend_array, i64, %struct.zend_get_gc_buffer, ptr, ptr, ptr, i64, i8, i32, ptr, ptr, i64, %struct._zend_call_stack, i64, i64, [6 x ptr] }
%struct.zend_atomic_bool_s = type { i8 }
%struct._zval_struct = type { %union._zend_value, %union.anon, %union.anon.2 }
%union._zend_value = type { i64 }
%union.anon = type { i32 }
%union.anon.2 = type { i32 }
%struct._zend_stack = type { i32, i32, i32, ptr }
%struct._zend_objects_store = type { ptr, i32, i32, i32 }
%struct._HashTableIterator = type { ptr, i32, i32 }
%union._zend_function = type { %struct._zend_op_array }
%struct._zend_op_array = type { i8, [3 x i8], i32, ptr, ptr, ptr, i32, i32, ptr, ptr, ptr, ptr, i32, i32, i32, i32, ptr, ptr, ptr, ptr, ptr, i32, i32, ptr, ptr, ptr, i32, i32, i32, i32, ptr, ptr, [6 x ptr] }
%struct._zend_op = type { ptr, %union._znode_op, %union._znode_op, %union._znode_op, i32, i32, i8, i8, i8, i8 }
%union._znode_op = type { i32 }
%struct._zend_array = type { %struct._zend_refcounted_h, %union.anon.4, i32, %union.anon.6, i32, i32, i32, i32, i64, ptr }
%struct._zend_refcounted_h = type { i32, %union.anon.3 }
%union.anon.3 = type { i32 }
%union.anon.4 = type { i32 }
%union.anon.6 = type { ptr }
%struct.zend_get_gc_buffer = type { ptr, ptr, ptr }
%struct._zend_call_stack = type { ptr, i64 }
%struct._zend_object_iterator_funcs = type { ptr, ptr, ptr, ptr, ptr, ptr, ptr, ptr }
%struct._zend_execute_data = type { ptr, ptr, ptr, ptr, %struct._zval_struct, ptr, ptr, ptr, ptr }
%struct._zend_object = type { %struct._zend_refcounted_h, i32, ptr, ptr, ptr, [1 x %struct._zval_struct] }
%struct._zend_object_iterator = type { %struct._zend_object, %struct._zval_struct, ptr, i64 }
%struct._spl_dual_it_object = type { %struct.anon.8, %struct.anon.9, i32, %union.anon.10, %struct._zend_object }
%struct.anon.8 = type { %struct._zval_struct, ptr, ptr, ptr }
%struct.anon.9 = type { %struct._zval_struct, %struct._zval_struct, i64 }
%union.anon.10 = type { %struct.anon.12 }
%struct.anon.12 = type { i64, ptr, %struct._zval_struct, %struct._zval_struct }
%struct._zend_refcounted = type { %struct._zend_refcounted_h }

@executor_globals = external global %struct._zend_executor_globals, align 8
@.str = private unnamed_addr constant [75 x i8] c"The object is in an invalid state as the parent constructor was not called\00", align 1

; Function Attrs: nounwind uwtable
define internal i32 @spl_dual_it_valid(ptr noundef %0) #0 {
  %2 = alloca i32, align 4
  %3 = alloca ptr, align 8
  store ptr %0, ptr %3, align 8
  %4 = load ptr, ptr %3, align 8
  %5 = getelementptr inbounds %struct._spl_dual_it_object, ptr %4, i32 0, i32 0
  %6 = getelementptr inbounds %struct.anon.8, ptr %5, i32 0, i32 3
  %7 = load ptr, ptr %6, align 8
  %8 = icmp ne ptr %7, null
  br i1 %8, label %10, label %9

9:                                                ; preds = %1
  store i32 -1, ptr %2, align 4
  br label %24

10:                                               ; preds = %1
  %11 = load ptr, ptr %3, align 8
  %12 = getelementptr inbounds %struct._spl_dual_it_object, ptr %11, i32 0, i32 0
  %13 = getelementptr inbounds %struct.anon.8, ptr %12, i32 0, i32 3
  %14 = load ptr, ptr %13, align 8
  %15 = getelementptr inbounds %struct._zend_object_iterator, ptr %14, i32 0, i32 2
  %16 = load ptr, ptr %15, align 8
  %17 = getelementptr inbounds %struct._zend_object_iterator_funcs, ptr %16, i32 0, i32 1
  %18 = load ptr, ptr %17, align 8
  %19 = load ptr, ptr %3, align 8
  %20 = getelementptr inbounds %struct._spl_dual_it_object, ptr %19, i32 0, i32 0
  %21 = getelementptr inbounds %struct.anon.8, ptr %20, i32 0, i32 3
  %22 = load ptr, ptr %21, align 8
  %23 = call i32 %18(ptr noundef %22)
  store i32 %23, ptr %2, align 4
  br label %24

24:                                               ; preds = %10, %9
  %25 = load i32, ptr %2, align 4
  ret i32 %25
}

; Function Attrs: nounwind uwtable
define internal i32 @spl_dual_it_fetch(ptr noundef %0, i32 noundef %1) #0 {
  %3 = alloca ptr, align 8
  %4 = alloca i32, align 4
  %5 = alloca ptr, align 8
  %6 = alloca i32, align 4
  %7 = alloca ptr, align 8
  %8 = alloca ptr, align 8
  %9 = alloca ptr, align 8
  %10 = alloca ptr, align 8
  %11 = alloca i32, align 4
  %12 = alloca ptr, align 8
  store ptr %0, ptr %5, align 8
  store i32 %1, ptr %6, align 4
  %13 = load ptr, ptr %5, align 8
  call void @spl_dual_it_free(ptr noundef %13)
  %14 = load i32, ptr %6, align 4
  %15 = icmp ne i32 %14, 0
  br i1 %15, label %16, label %20

16:                                               ; preds = %2
  %17 = load ptr, ptr %5, align 8
  %18 = call i32 @spl_dual_it_valid(ptr noundef %17)
  %19 = icmp eq i32 %18, 0
  br i1 %19, label %20, label %124

20:                                               ; preds = %16, %2
  %21 = load ptr, ptr %5, align 8
  %22 = getelementptr inbounds %struct._spl_dual_it_object, ptr %21, i32 0, i32 0
  %23 = getelementptr inbounds %struct.anon.8, ptr %22, i32 0, i32 3
  %24 = load ptr, ptr %23, align 8
  %25 = getelementptr inbounds %struct._zend_object_iterator, ptr %24, i32 0, i32 2
  %26 = load ptr, ptr %25, align 8
  %27 = getelementptr inbounds %struct._zend_object_iterator_funcs, ptr %26, i32 0, i32 2
  %28 = load ptr, ptr %27, align 8
  %29 = load ptr, ptr %5, align 8
  %30 = getelementptr inbounds %struct._spl_dual_it_object, ptr %29, i32 0, i32 0
  %31 = getelementptr inbounds %struct.anon.8, ptr %30, i32 0, i32 3
  %32 = load ptr, ptr %31, align 8
  %33 = call ptr %28(ptr noundef %32)
  store ptr %33, ptr %7, align 8
  %34 = load ptr, ptr %7, align 8
  %35 = icmp ne ptr %34, null
  br i1 %35, label %36, label %67

36:                                               ; preds = %20
  br label %37

37:                                               ; preds = %36
  %38 = load ptr, ptr %5, align 8
  %39 = getelementptr inbounds %struct._spl_dual_it_object, ptr %38, i32 0, i32 1
  %40 = getelementptr inbounds %struct.anon.9, ptr %39, i32 0, i32 0
  store ptr %40, ptr %8, align 8
  %41 = load ptr, ptr %7, align 8
  store ptr %41, ptr %9, align 8
  %42 = load ptr, ptr %9, align 8
  %43 = getelementptr inbounds %struct._zval_struct, ptr %42, i32 0, i32 0
  %44 = load ptr, ptr %43, align 8
  store ptr %44, ptr %10, align 8
  %45 = load ptr, ptr %9, align 8
  %46 = getelementptr inbounds %struct._zval_struct, ptr %45, i32 0, i32 1
  %47 = load i32, ptr %46, align 8
  store i32 %47, ptr %11, align 4
  br label %48

48:                                               ; preds = %37
  %49 = load ptr, ptr %10, align 8
  %50 = load ptr, ptr %8, align 8
  %51 = getelementptr inbounds %struct._zval_struct, ptr %50, i32 0, i32 0
  store ptr %49, ptr %51, align 8
  %52 = load i32, ptr %11, align 4
  %53 = load ptr, ptr %8, align 8
  %54 = getelementptr inbounds %struct._zval_struct, ptr %53, i32 0, i32 1
  store i32 %52, ptr %54, align 8
  br label %55

55:                                               ; preds = %48
  %56 = load i32, ptr %11, align 4
  %57 = and i32 %56, 65280
  %58 = icmp ne i32 %57, 0
  br i1 %58, label %59, label %65

59:                                               ; preds = %55
  %60 = load ptr, ptr %10, align 8
  %61 = getelementptr inbounds %struct._zend_refcounted, ptr %60, i32 0, i32 0
  store ptr %61, ptr %3, align 8
  %62 = load ptr, ptr %3, align 8
  %63 = load i32, ptr %62, align 4
  %64 = add i32 %63, 1
  store i32 %64, ptr %62, align 4
  br label %65

65:                                               ; preds = %59, %55
  br label %66

66:                                               ; preds = %65
  br label %67

67:                                               ; preds = %66, %20
  %68 = load ptr, ptr %5, align 8
  %69 = getelementptr inbounds %struct._spl_dual_it_object, ptr %68, i32 0, i32 0
  %70 = getelementptr inbounds %struct.anon.8, ptr %69, i32 0, i32 3
  %71 = load ptr, ptr %70, align 8
  %72 = getelementptr inbounds %struct._zend_object_iterator, ptr %71, i32 0, i32 2
  %73 = load ptr, ptr %72, align 8
  %74 = getelementptr inbounds %struct._zend_object_iterator_funcs, ptr %73, i32 0, i32 3
  %75 = load ptr, ptr %74, align 8
  %76 = icmp ne ptr %75, null
  br i1 %76, label %77, label %106

77:                                               ; preds = %67
  %78 = load ptr, ptr %5, align 8
  %79 = getelementptr inbounds %struct._spl_dual_it_object, ptr %78, i32 0, i32 0
  %80 = getelementptr inbounds %struct.anon.8, ptr %79, i32 0, i32 3
  %81 = load ptr, ptr %80, align 8
  %82 = getelementptr inbounds %struct._zend_object_iterator, ptr %81, i32 0, i32 2
  %83 = load ptr, ptr %82, align 8
  %84 = getelementptr inbounds %struct._zend_object_iterator_funcs, ptr %83, i32 0, i32 3
  %85 = load ptr, ptr %84, align 8
  %86 = load ptr, ptr %5, align 8
  %87 = getelementptr inbounds %struct._spl_dual_it_object, ptr %86, i32 0, i32 0
  %88 = getelementptr inbounds %struct.anon.8, ptr %87, i32 0, i32 3
  %89 = load ptr, ptr %88, align 8
  %90 = load ptr, ptr %5, align 8
  %91 = getelementptr inbounds %struct._spl_dual_it_object, ptr %90, i32 0, i32 1
  %92 = getelementptr inbounds %struct.anon.9, ptr %91, i32 0, i32 1
  call void %85(ptr noundef %89, ptr noundef %92)
  %93 = load ptr, ptr getelementptr inbounds (%struct._zend_executor_globals, ptr @executor_globals, i32 0, i32 50), align 8
  %94 = icmp ne ptr %93, null
  br i1 %94, label %95, label %105

95:                                               ; preds = %77
  %96 = load ptr, ptr %5, align 8
  %97 = getelementptr inbounds %struct._spl_dual_it_object, ptr %96, i32 0, i32 1
  %98 = getelementptr inbounds %struct.anon.9, ptr %97, i32 0, i32 1
  call void @zval_ptr_dtor(ptr noundef %98)
  br label %99

99:                                               ; preds = %95
  %100 = load ptr, ptr %5, align 8
  %101 = getelementptr inbounds %struct._spl_dual_it_object, ptr %100, i32 0, i32 1
  %102 = getelementptr inbounds %struct.anon.9, ptr %101, i32 0, i32 1
  %103 = getelementptr inbounds %struct._zval_struct, ptr %102, i32 0, i32 1
  store i32 0, ptr %103, align 8
  br label %104

104:                                              ; preds = %99
  br label %105

105:                                              ; preds = %104, %77
  br label %120

106:                                              ; preds = %67
  br label %107

107:                                              ; preds = %106
  %108 = load ptr, ptr %5, align 8
  %109 = getelementptr inbounds %struct._spl_dual_it_object, ptr %108, i32 0, i32 1
  %110 = getelementptr inbounds %struct.anon.9, ptr %109, i32 0, i32 1
  store ptr %110, ptr %12, align 8
  %111 = load ptr, ptr %5, align 8
  %112 = getelementptr inbounds %struct._spl_dual_it_object, ptr %111, i32 0, i32 1
  %113 = getelementptr inbounds %struct.anon.9, ptr %112, i32 0, i32 2
  %114 = load i64, ptr %113, align 8
  %115 = load ptr, ptr %12, align 8
  %116 = getelementptr inbounds %struct._zval_struct, ptr %115, i32 0, i32 0
  store i64 %114, ptr %116, align 8
  %117 = load ptr, ptr %12, align 8
  %118 = getelementptr inbounds %struct._zval_struct, ptr %117, i32 0, i32 1
  store i32 4, ptr %118, align 8
  br label %119

119:                                              ; preds = %107
  br label %120

120:                                              ; preds = %119, %105
  %121 = load ptr, ptr getelementptr inbounds (%struct._zend_executor_globals, ptr @executor_globals, i32 0, i32 50), align 8
  %122 = icmp ne ptr %121, null
  %123 = select i1 %122, i32 -1, i32 0
  store i32 %123, ptr %4, align 4
  br label %125

124:                                              ; preds = %16
  store i32 -1, ptr %4, align 4
  br label %125

125:                                              ; preds = %124, %120
  %126 = load i32, ptr %4, align 4
  ret i32 %126
}

; Function Attrs: nounwind uwtable
define internal void @spl_dual_it_rewind(ptr noundef %0) #0 {
  %2 = alloca ptr, align 8
  store ptr %0, ptr %2, align 8
  %3 = load ptr, ptr %2, align 8
  call void @spl_dual_it_free(ptr noundef %3)
  %4 = load ptr, ptr %2, align 8
  %5 = getelementptr inbounds %struct._spl_dual_it_object, ptr %4, i32 0, i32 1
  %6 = getelementptr inbounds %struct.anon.9, ptr %5, i32 0, i32 2
  store i64 0, ptr %6, align 8
  %7 = load ptr, ptr %2, align 8
  %8 = getelementptr inbounds %struct._spl_dual_it_object, ptr %7, i32 0, i32 0
  %9 = getelementptr inbounds %struct.anon.8, ptr %8, i32 0, i32 3
  %10 = load ptr, ptr %9, align 8
  %11 = icmp ne ptr %10, null
  br i1 %11, label %12, label %35

12:                                               ; preds = %1
  %13 = load ptr, ptr %2, align 8
  %14 = getelementptr inbounds %struct._spl_dual_it_object, ptr %13, i32 0, i32 0
  %15 = getelementptr inbounds %struct.anon.8, ptr %14, i32 0, i32 3
  %16 = load ptr, ptr %15, align 8
  %17 = getelementptr inbounds %struct._zend_object_iterator, ptr %16, i32 0, i32 2
  %18 = load ptr, ptr %17, align 8
  %19 = getelementptr inbounds %struct._zend_object_iterator_funcs, ptr %18, i32 0, i32 5
  %20 = load ptr, ptr %19, align 8
  %21 = icmp ne ptr %20, null
  br i1 %21, label %22, label %35

22:                                               ; preds = %12
  %23 = load ptr, ptr %2, align 8
  %24 = getelementptr inbounds %struct._spl_dual_it_object, ptr %23, i32 0, i32 0
  %25 = getelementptr inbounds %struct.anon.8, ptr %24, i32 0, i32 3
  %26 = load ptr, ptr %25, align 8
  %27 = getelementptr inbounds %struct._zend_object_iterator, ptr %26, i32 0, i32 2
  %28 = load ptr, ptr %27, align 8
  %29 = getelementptr inbounds %struct._zend_object_iterator_funcs, ptr %28, i32 0, i32 5
  %30 = load ptr, ptr %29, align 8
  %31 = load ptr, ptr %2, align 8
  %32 = getelementptr inbounds %struct._spl_dual_it_object, ptr %31, i32 0, i32 0
  %33 = getelementptr inbounds %struct.anon.8, ptr %32, i32 0, i32 3
  %34 = load ptr, ptr %33, align 8
  call void %30(ptr noundef %34)
  br label %35

35:                                               ; preds = %22, %12, %1
  ret void
}

; Function Attrs: nounwind uwtable
define internal ptr @spl_dual_it_from_obj(ptr noundef %0) #0 {
  %2 = alloca ptr, align 8
  store ptr %0, ptr %2, align 8
  %3 = load ptr, ptr %2, align 8
  %4 = getelementptr inbounds i8, ptr %3, i64 -136
  ret ptr %4
}

; Function Attrs: nounwind uwtable
define hidden void @zim_IteratorIterator_rewind(ptr noundef %0, ptr noundef %1) #0 {
  %3 = alloca ptr, align 8
  %4 = alloca ptr, align 8
  %5 = alloca ptr, align 8
  %6 = alloca ptr, align 8
  store ptr %0, ptr %3, align 8
  store ptr %1, ptr %4, align 8
  %7 = load ptr, ptr %3, align 8
  %8 = getelementptr inbounds %struct._zend_execute_data, ptr %7, i32 0, i32 4
  %9 = getelementptr inbounds %struct._zval_struct, ptr %8, i32 0, i32 2
  %10 = load i32, ptr %9, align 4
  %11 = icmp eq i32 %10, 0
  %12 = xor i1 %11, true
  %13 = xor i1 %12, true
  %14 = zext i1 %13 to i32
  %15 = sext i32 %14 to i64
  %16 = icmp ne i64 %15, 0
  br i1 %16, label %17, label %18

17:                                               ; preds = %2
  br label %19

18:                                               ; preds = %2
  call void @zend_wrong_parameters_none_error()
  br label %19

19:                                               ; preds = %18, %17
  %20 = phi i32 [ 0, %17 ], [ -1, %18 ]
  %21 = icmp eq i32 %20, -1
  br i1 %21, label %22, label %27

22:                                               ; preds = %19
  br label %23

23:                                               ; preds = %22
  %24 = load ptr, ptr getelementptr inbounds (%struct._zend_executor_globals, ptr @executor_globals, i32 0, i32 50), align 8
  %25 = icmp ne ptr %24, null
  call void @llvm.assume(i1 %25)
  br label %49

26:                                               ; No predecessors!
  br label %27

27:                                               ; preds = %26, %19
  br label %28

28:                                               ; preds = %27
  %29 = load ptr, ptr %3, align 8
  %30 = getelementptr inbounds %struct._zend_execute_data, ptr %29, i32 0, i32 4
  %31 = getelementptr inbounds %struct._zval_struct, ptr %30, i32 0, i32 0
  %32 = load ptr, ptr %31, align 8
  %33 = call ptr @spl_dual_it_from_obj(ptr noundef %32)
  store ptr %33, ptr %6, align 8
  %34 = load ptr, ptr %6, align 8
  %35 = getelementptr inbounds %struct._spl_dual_it_object, ptr %34, i32 0, i32 2
  %36 = load i32, ptr %35, align 8
  %37 = icmp eq i32 %36, -1
  br i1 %37, label %38, label %43

38:                                               ; preds = %28
  call void (ptr, ptr, ...) @zend_throw_error(ptr noundef null, ptr noundef @.str)
  br label %39

39:                                               ; preds = %38
  %40 = load ptr, ptr getelementptr inbounds (%struct._zend_executor_globals, ptr @executor_globals, i32 0, i32 50), align 8
  %41 = icmp ne ptr %40, null
  call void @llvm.assume(i1 %41)
  br label %49

42:                                               ; No predecessors!
  br label %43

43:                                               ; preds = %42, %28
  %44 = load ptr, ptr %6, align 8
  store ptr %44, ptr %5, align 8
  br label %45

45:                                               ; preds = %43
  %46 = load ptr, ptr %5, align 8
  call void @spl_dual_it_rewind(ptr noundef %46)
  %47 = load ptr, ptr %5, align 8
  %48 = call i32 @spl_dual_it_fetch(ptr noundef %47, i32 noundef 1)
  br label %49

49:                                               ; preds = %45, %39, %23
  ret void
}