; Function Attrs: nounwind uwtable
define hidden void @zim_IteratorIterator_rewind(ptr nocapture noundef readonly %0, ptr nocapture readnone %1) #0 {
  %3 = getelementptr inbounds i8, ptr %0, i64 44
  %4 = load i32, ptr %3, align 4
  %.not = icmp eq i32 %4, 0
  br i1 %.not, label %.critedge, label %5

5:                                                ; preds = %2
  tail call void @zend_wrong_parameters_none_error() #10
  %6 = load ptr, ptr getelementptr inbounds (%struct._zend_executor_globals, ptr @executor_globals, i64 0, i32 50), align 8
  %7 = icmp ne ptr %6, null
  tail call void @llvm.assume(i1 %7)
  br label %spl_dual_it_fetch.exit

.critedge:                                        ; preds = %2
  %8 = getelementptr inbounds i8, ptr %0, i64 32
  %9 = load ptr, ptr %8, align 8
  %10 = getelementptr inbounds i8, ptr %9, i64 -136
  %11 = getelementptr inbounds i8, ptr %9, i64 -56
  %12 = load i32, ptr %11, align 8
  %13 = icmp eq i32 %12, -1
  br i1 %13, label %14, label %17

14:                                               ; preds = %.critedge
  tail call void (ptr, ptr, ...) @zend_throw_error(ptr noundef null, ptr noundef nonnull @.str) #10
  %15 = load ptr, ptr getelementptr inbounds (%struct._zend_executor_globals, ptr @executor_globals, i64 0, i32 50), align 8
  %16 = icmp ne ptr %15, null
  tail call void @llvm.assume(i1 %16)
  br label %spl_dual_it_fetch.exit

17:                                               ; preds = %.critedge
  tail call fastcc void @spl_dual_it_free(ptr noundef nonnull %10)
  %18 = getelementptr inbounds i8, ptr %9, i64 -64
  store i64 0, ptr %18, align 8
  %19 = getelementptr inbounds i8, ptr %9, i64 -104
  %20 = load ptr, ptr %19, align 8
  %.not.i = icmp eq ptr %20, null
  br i1 %.not.i, label %spl_dual_it_rewind.exit, label %21

21:                                               ; preds = %17
  %22 = getelementptr inbounds i8, ptr %20, i64 72
  %23 = load ptr, ptr %22, align 8
  %24 = getelementptr inbounds i8, ptr %23, i64 40
  %25 = load ptr, ptr %24, align 8
  %.not7.i = icmp eq ptr %25, null
  br i1 %.not7.i, label %spl_dual_it_rewind.exit, label %26

26:                                               ; preds = %21
  tail call void %25(ptr noundef nonnull %20) #10
  br label %spl_dual_it_rewind.exit

spl_dual_it_rewind.exit:                          ; preds = %17, %21, %26
  tail call fastcc void @spl_dual_it_free(ptr noundef nonnull %10)
  %.val.i = load ptr, ptr %19, align 8
  %.not.i.i = icmp eq ptr %.val.i, null
  br i1 %.not.i.i, label %spl_dual_it_fetch.exit, label %spl_dual_it_valid.exit.i

spl_dual_it_valid.exit.i:                         ; preds = %spl_dual_it_rewind.exit
  %27 = getelementptr inbounds i8, ptr %.val.i, i64 72
  %28 = load ptr, ptr %27, align 8
  %29 = getelementptr inbounds i8, ptr %28, i64 8
  %30 = load ptr, ptr %29, align 8
  %31 = tail call i32 %30(ptr noundef nonnull %.val.i) #10
  %32 = icmp eq i32 %31, 0
  br i1 %32, label %33, label %spl_dual_it_fetch.exit

33:                                               ; preds = %spl_dual_it_valid.exit.i
  %34 = load ptr, ptr %19, align 8
  %35 = getelementptr inbounds i8, ptr %34, i64 72
  %36 = load ptr, ptr %35, align 8
  %37 = getelementptr inbounds i8, ptr %36, i64 16
  %38 = load ptr, ptr %37, align 8
  %39 = tail call ptr %38(ptr noundef %34) #10
  %.not29.i = icmp eq ptr %39, null
  br i1 %.not29.i, label %50, label %40

40:                                               ; preds = %33
  %41 = getelementptr inbounds i8, ptr %9, i64 -96
  %42 = load ptr, ptr %39, align 8
  %43 = getelementptr inbounds i8, ptr %39, i64 8
  %44 = load i32, ptr %43, align 8
  store ptr %42, ptr %41, align 8
  %45 = getelementptr inbounds i8, ptr %9, i64 -88
  store i32 %44, ptr %45, align 8
  %46 = and i32 %44, 65280
  %.not30.i = icmp eq i32 %46, 0
  br i1 %.not30.i, label %50, label %47

47:                                               ; preds = %40
  %48 = load i32, ptr %42, align 4
  %49 = add i32 %48, 1
  store i32 %49, ptr %42, align 4
  br label %50

50:                                               ; preds = %47, %40, %33
  %51 = load ptr, ptr %19, align 8
  %52 = getelementptr inbounds i8, ptr %51, i64 72
  %53 = load ptr, ptr %52, align 8
  %54 = getelementptr inbounds i8, ptr %53, i64 24
  %55 = load ptr, ptr %54, align 8
  %.not31.i = icmp eq ptr %55, null
  %56 = getelementptr inbounds i8, ptr %9, i64 -80
  br i1 %.not31.i, label %60, label %57

57:                                               ; preds = %50
  tail call void %55(ptr noundef nonnull %51, ptr noundef nonnull %56) #10
  %58 = load ptr, ptr getelementptr inbounds (%struct._zend_executor_globals, ptr @executor_globals, i64 0, i32 50), align 8
  %.not32.i = icmp eq ptr %58, null
  br i1 %.not32.i, label %spl_dual_it_fetch.exit, label %59

59:                                               ; preds = %57
  tail call void @zval_ptr_dtor(ptr noundef nonnull %56) #10
  br label %.sink.split.i

60:                                               ; preds = %50
  %61 = load i64, ptr %18, align 8
  store i64 %61, ptr %56, align 8
  br label %.sink.split.i

.sink.split.i:                                    ; preds = %60, %59
  %.sink.i = phi i32 [ 0, %59 ], [ 4, %60 ]
  %62 = getelementptr inbounds i8, ptr %9, i64 -72
  store i32 %.sink.i, ptr %62, align 8
  br label %spl_dual_it_fetch.exit

spl_dual_it_fetch.exit:                           ; preds = %57, %.sink.split.i, %spl_dual_it_valid.exit.i, %spl_dual_it_rewind.exit, %14, %5
  ret void
}